---
triple:          'arm64-apple-darwin'
binary-path:     wordle-driver
relocations:
  - { offsetInCU: 0x6789, offset: 0x6789, size: 0x8, addend: 0x0, symName: __ZStL8__ioinit, symObjAddr: 0x1ECE0, symBinAddr: 0x10000C000, symSize: 0x0 }
  - { offsetInCU: 0x6AE6, offset: 0x6AE6, size: 0x8, addend: 0x0, symName: __ZN9__gnu_cxx16__aligned_membufINSt7__cxx1112basic_stringIcSt11char_traitsIcESaIcEEEE7_M_addrEv, symObjAddr: 0x9CC, symBinAddr: 0x1000015B8, symSize: 0x14 }
  - { offsetInCU: 0x6B0E, offset: 0x6B0E, size: 0x8, addend: 0x0, symName: __ZNSt15__new_allocatorISt13_Rb_tree_nodeINSt7__cxx1112basic_stringIcSt11char_traitsIcESaIcEEEEE10deallocateEPS7_m, symObjAddr: 0x9A4, symBinAddr: 0x100001590, symSize: 0x28 }
  - { offsetInCU: 0x6B7D, offset: 0x6B7D, size: 0x8, addend: 0x0, symName: __ZN9__gnu_cxx16__aligned_membufINSt7__cxx1112basic_stringIcSt11char_traitsIcESaIcEEEE6_M_ptrEv, symObjAddr: 0x988, symBinAddr: 0x100001574, symSize: 0x1C }
  - { offsetInCU: 0x6BA7, offset: 0x6BA7, size: 0x8, addend: 0x0, symName: __ZSt4moveIRSaISt13_Rb_tree_nodeINSt7__cxx1112basic_stringIcSt11char_traitsIcESaIcEEEEEEONSt16remove_referenceIT_E4typeEOSB_, symObjAddr: 0x974, symBinAddr: 0x100001560, symSize: 0x14 }
  - { offsetInCU: 0x6C33, offset: 0x6C33, size: 0x8, addend: 0x0, symName: __ZNSt13_Rb_tree_nodeINSt7__cxx1112basic_stringIcSt11char_traitsIcESaIcEEEE9_M_valptrEv, symObjAddr: 0x954, symBinAddr: 0x100001540, symSize: 0x20 }
  - { offsetInCU: 0x6C5F, offset: 0x6C5F, size: 0x8, addend: 0x0, symName: __ZNK9__gnu_cxx16__aligned_membufINSt7__cxx1112basic_stringIcSt11char_traitsIcESaIcEEEE7_M_addrEv, symObjAddr: 0x940, symBinAddr: 0x10000152C, symSize: 0x14 }
  - { offsetInCU: 0x6CB6, offset: 0x6CB6, size: 0x8, addend: 0x0, symName: __ZNSt8_Rb_treeINSt7__cxx1112basic_stringIcSt11char_traitsIcESaIcEEES5_St9_IdentityIS5_ESt4lessIS5_ESaIS5_EE11_M_put_nodeEPSt13_Rb_tree_nodeIS5_E, symObjAddr: 0x8F4, symBinAddr: 0x1000014E0, symSize: 0x4C }
  - { offsetInCU: 0x6D20, offset: 0x6D20, size: 0x8, addend: 0x0, symName: __ZNSt8_Rb_treeINSt7__cxx1112basic_stringIcSt11char_traitsIcESaIcEEES5_St9_IdentityIS5_ESt4lessIS5_ESaIS5_EE15_M_destroy_nodeEPSt13_Rb_tree_nodeIS5_E, symObjAddr: 0x894, symBinAddr: 0x100001480, symSize: 0x60 }
  - { offsetInCU: 0x6DAC, offset: 0x6DAC, size: 0x8, addend: 0x0, symName: __ZNK9__gnu_cxx16__aligned_membufINSt7__cxx1112basic_stringIcSt11char_traitsIcESaIcEEEE6_M_ptrEv, symObjAddr: 0x878, symBinAddr: 0x100001464, symSize: 0x1C }
  - { offsetInCU: 0x6E65, offset: 0x6E65, size: 0x8, addend: 0x0, symName: __ZNSt23_Rb_tree_const_iteratorINSt7__cxx1112basic_stringIcSt11char_traitsIcESaIcEEEEC1EPKSt18_Rb_tree_node_base, symObjAddr: 0x854, symBinAddr: 0x100001440, symSize: 0x24 }
  - { offsetInCU: 0x6E4F, offset: 0x6E4F, size: 0x8, addend: 0x0, symName: __ZNSt8_Rb_treeINSt7__cxx1112basic_stringIcSt11char_traitsIcESaIcEEES5_St9_IdentityIS5_ESt4lessIS5_ESaIS5_EE21_M_get_Node_allocatorEv, symObjAddr: 0x840, symBinAddr: 0x10000142C, symSize: 0x14 }
  - { offsetInCU: 0x6E77, offset: 0x6E77, size: 0x8, addend: 0x0, symName: __ZNSt8_Rb_treeINSt7__cxx1112basic_stringIcSt11char_traitsIcESaIcEEES5_St9_IdentityIS5_ESt4lessIS5_ESaIS5_EE12_M_move_dataERSB_St17integral_constantIbLb1EE, symObjAddr: 0x804, symBinAddr: 0x1000013F0, symSize: 0x3C }
  - { offsetInCU: 0x6EB7, offset: 0x6EB7, size: 0x8, addend: 0x0, symName: __ZNSt8_Rb_treeINSt7__cxx1112basic_stringIcSt11char_traitsIcESaIcEEES5_St9_IdentityIS5_ESt4lessIS5_ESaIS5_EE7_M_rootEv, symObjAddr: 0x7EC, symBinAddr: 0x1000013D8, symSize: 0x18 }
  - { offsetInCU: 0x6EDF, offset: 0x6EDF, size: 0x8, addend: 0x0, symName: __ZNSt8_Rb_treeINSt7__cxx1112basic_stringIcSt11char_traitsIcESaIcEEES5_St9_IdentityIS5_ESt4lessIS5_ESaIS5_EE5clearEv, symObjAddr: 0x7B4, symBinAddr: 0x1000013A0, symSize: 0x38 }
  - { offsetInCU: 0x6F07, offset: 0x6F07, size: 0x8, addend: 0x0, symName: __ZNKSt8_Rb_treeINSt7__cxx1112basic_stringIcSt11char_traitsIcESaIcEEES5_St9_IdentityIS5_ESt4lessIS5_ESaIS5_EE9_M_mbeginEv, symObjAddr: 0x79C, symBinAddr: 0x100001388, symSize: 0x18 }
  - { offsetInCU: 0x6F2F, offset: 0x6F2F, size: 0x8, addend: 0x0, symName: __ZNSt8_Rb_treeINSt7__cxx1112basic_stringIcSt11char_traitsIcESaIcEEES5_St9_IdentityIS5_ESt4lessIS5_ESaIS5_EE12_M_drop_nodeEPSt13_Rb_tree_nodeIS5_E, symObjAddr: 0x768, symBinAddr: 0x100001354, symSize: 0x34 }
  - { offsetInCU: 0x6F63, offset: 0x6F63, size: 0x8, addend: 0x0, symName: __ZNSt8_Rb_treeINSt7__cxx1112basic_stringIcSt11char_traitsIcESaIcEEES5_St9_IdentityIS5_ESt4lessIS5_ESaIS5_EE7_S_leftEPSt18_Rb_tree_node_base, symObjAddr: 0x750, symBinAddr: 0x10000133C, symSize: 0x18 }
  - { offsetInCU: 0x6F8B, offset: 0x6F8B, size: 0x8, addend: 0x0, symName: __ZNSt8_Rb_treeINSt7__cxx1112basic_stringIcSt11char_traitsIcESaIcEEES5_St9_IdentityIS5_ESt4lessIS5_ESaIS5_EE8_S_rightEPSt18_Rb_tree_node_base, symObjAddr: 0x738, symBinAddr: 0x100001324, symSize: 0x18 }
  - { offsetInCU: 0x6FCB, offset: 0x6FCB, size: 0x8, addend: 0x0, symName: __ZNKSt13_Rb_tree_nodeINSt7__cxx1112basic_stringIcSt11char_traitsIcESaIcEEEE9_M_valptrEv, symObjAddr: 0x718, symBinAddr: 0x100001304, symSize: 0x20 }
  - { offsetInCU: 0x6FF3, offset: 0x6FF3, size: 0x8, addend: 0x0, symName: __ZNKSt8_Rb_treeINSt7__cxx1112basic_stringIcSt11char_traitsIcESaIcEEES5_St9_IdentityIS5_ESt4lessIS5_ESaIS5_EE3endEv, symObjAddr: 0x6F0, symBinAddr: 0x1000012DC, symSize: 0x28 }
  - { offsetInCU: 0x701B, offset: 0x701B, size: 0x8, addend: 0x0, symName: __ZNKSt8_Rb_treeINSt7__cxx1112basic_stringIcSt11char_traitsIcESaIcEEES5_St9_IdentityIS5_ESt4lessIS5_ESaIS5_EE5beginEv, symObjAddr: 0x6C8, symBinAddr: 0x1000012B4, symSize: 0x28 }
  - { offsetInCU: 0x7043, offset: 0x7043, size: 0x8, addend: 0x0, symName: __ZNSt8_Rb_treeINSt7__cxx1112basic_stringIcSt11char_traitsIcESaIcEEES5_St9_IdentityIS5_ESt4lessIS5_ESaIS5_EE14_M_move_assignERSB_St17integral_constantIbLb1EE, symObjAddr: 0x628, symBinAddr: 0x100001214, symSize: 0xA0 }
  - { offsetInCU: 0x70E2, offset: 0x70E2, size: 0x8, addend: 0x0, symName: __ZSt4moveIRSt4lessINSt7__cxx1112basic_stringIcSt11char_traitsIcESaIcEEEEEONSt16remove_referenceIT_E4typeEOSA_, symObjAddr: 0x614, symBinAddr: 0x100001200, symSize: 0x14 }
  - { offsetInCU: 0x7116, offset: 0x7116, size: 0x8, addend: 0x0, symName: __ZNSt8_Rb_treeINSt7__cxx1112basic_stringIcSt11char_traitsIcESaIcEEES5_St9_IdentityIS5_ESt4lessIS5_ESaIS5_EE8_M_beginEv, symObjAddr: 0x5F8, symBinAddr: 0x1000011E4, symSize: 0x1C }
  - { offsetInCU: 0x713E, offset: 0x713E, size: 0x8, addend: 0x0, symName: __ZNSt8_Rb_treeINSt7__cxx1112basic_stringIcSt11char_traitsIcESaIcEEES5_St9_IdentityIS5_ESt4lessIS5_ESaIS5_EE8_M_eraseEPSt13_Rb_tree_nodeIS5_E, symObjAddr: 0x594, symBinAddr: 0x100001180, symSize: 0x64 }
  - { offsetInCU: 0x7219, offset: 0x7219, size: 0x8, addend: 0x0, symName: __ZNSt15__new_allocatorISt13_Rb_tree_nodeINSt7__cxx1112basic_stringIcSt11char_traitsIcESaIcEEEEED2Ev, symObjAddr: 0x580, symBinAddr: 0x10000116C, symSize: 0x14 }
  - { offsetInCU: 0x7250, offset: 0x7250, size: 0x8, addend: 0x0, symName: __ZNSt20_Rb_tree_key_compareISt4lessINSt7__cxx1112basic_stringIcSt11char_traitsIcESaIcEEEEEC2Ev, symObjAddr: 0x56C, symBinAddr: 0x100001158, symSize: 0x14 }
  - { offsetInCU: 0x7268, offset: 0x7268, size: 0x8, addend: 0x0, symName: __ZNSt15__new_allocatorIcED2Ev, symObjAddr: 0x558, symBinAddr: 0x100001144, symSize: 0x14 }
  - { offsetInCU: 0x7286, offset: 0x7286, size: 0x8, addend: 0x0, symName: __ZNKSt23_Rb_tree_const_iteratorINSt7__cxx1112basic_stringIcSt11char_traitsIcESaIcEEEEdeEv, symObjAddr: 0x538, symBinAddr: 0x100001124, symSize: 0x20 }
  - { offsetInCU: 0x72AE, offset: 0x72AE, size: 0x8, addend: 0x0, symName: __ZNSt23_Rb_tree_const_iteratorINSt7__cxx1112basic_stringIcSt11char_traitsIcESaIcEEEEppEv, symObjAddr: 0x508, symBinAddr: 0x1000010F4, symSize: 0x30 }
  - { offsetInCU: 0x72D8, offset: 0x72D8, size: 0x8, addend: 0x0, symName: __ZStneRKSt23_Rb_tree_const_iteratorINSt7__cxx1112basic_stringIcSt11char_traitsIcESaIcEEEES8_, symObjAddr: 0x4D8, symBinAddr: 0x1000010C4, symSize: 0x30 }
  - { offsetInCU: 0x7314, offset: 0x7314, size: 0x8, addend: 0x0, symName: __ZNKSt3setINSt7__cxx1112basic_stringIcSt11char_traitsIcESaIcEEESt4lessIS5_ESaIS5_EE3endEv, symObjAddr: 0x4BC, symBinAddr: 0x1000010A8, symSize: 0x1C }
  - { offsetInCU: 0x733C, offset: 0x733C, size: 0x8, addend: 0x0, symName: __ZNKSt3setINSt7__cxx1112basic_stringIcSt11char_traitsIcESaIcEEESt4lessIS5_ESaIS5_EE5beginEv, symObjAddr: 0x4A0, symBinAddr: 0x10000108C, symSize: 0x1C }
  - { offsetInCU: 0x7364, offset: 0x7364, size: 0x8, addend: 0x0, symName: __ZNSt8_Rb_treeINSt7__cxx1112basic_stringIcSt11char_traitsIcESaIcEEES5_St9_IdentityIS5_ESt4lessIS5_ESaIS5_EEaSEOSB_, symObjAddr: 0x464, symBinAddr: 0x100001050, symSize: 0x3C }
  - { offsetInCU: 0x7429, offset: 0x7429, size: 0x8, addend: 0x0, symName: __ZNSt8_Rb_treeINSt7__cxx1112basic_stringIcSt11char_traitsIcESaIcEEES5_St9_IdentityIS5_ESt4lessIS5_ESaIS5_EED1Ev, symObjAddr: 0x430, symBinAddr: 0x10000101C, symSize: 0x34 }
  - { offsetInCU: 0x749A, offset: 0x749A, size: 0x8, addend: 0x0, symName: __ZNSt8_Rb_treeINSt7__cxx1112basic_stringIcSt11char_traitsIcESaIcEEES5_St9_IdentityIS5_ESt4lessIS5_ESaIS5_EE13_Rb_tree_implIS9_Lb1EEC1Ev, symObjAddr: 0x3EC, symBinAddr: 0x100000FD8, symSize: 0x44 }
  - { offsetInCU: 0x74B3, offset: 0x74B3, size: 0x8, addend: 0x0, symName: _main, symObjAddr: 0x19C, symBinAddr: 0x100000D88, symSize: 0x250 }
  - { offsetInCU: 0x765E, offset: 0x765E, size: 0x8, addend: 0x0, symName: __ZNSt3setINSt7__cxx1112basic_stringIcSt11char_traitsIcESaIcEEESt4lessIS5_ESaIS5_EEaSEOS9_, symObjAddr: 0x174, symBinAddr: 0x100000D60, symSize: 0x28 }
  - { offsetInCU: 0x7702, offset: 0x7702, size: 0x8, addend: 0x0, symName: __ZNSt3setINSt7__cxx1112basic_stringIcSt11char_traitsIcESaIcEEESt4lessIS5_ESaIS5_EED1Ev, symObjAddr: 0x154, symBinAddr: 0x100000D40, symSize: 0x20 }
  - { offsetInCU: 0x773E, offset: 0x773E, size: 0x8, addend: 0x0, symName: __ZNSt3setINSt7__cxx1112basic_stringIcSt11char_traitsIcESaIcEEESt4lessIS5_ESaIS5_EEC1Ev, symObjAddr: 0x134, symBinAddr: 0x100000D20, symSize: 0x20 }
  - { offsetInCU: 0x7793, offset: 0x7793, size: 0x8, addend: 0x0, symName: __ZNSt8_Rb_treeINSt7__cxx1112basic_stringIcSt11char_traitsIcESaIcEEES5_St9_IdentityIS5_ESt4lessIS5_ESaIS5_EEC1Ev, symObjAddr: 0x114, symBinAddr: 0x100000D00, symSize: 0x20 }
  - { offsetInCU: 0x77F4, offset: 0x77F4, size: 0x8, addend: 0x0, symName: __ZNSt8_Rb_treeINSt7__cxx1112basic_stringIcSt11char_traitsIcESaIcEEES5_St9_IdentityIS5_ESt4lessIS5_ESaIS5_EE13_Rb_tree_implIS9_Lb1EED1Ev, symObjAddr: 0xE8, symBinAddr: 0x100000CD4, symSize: 0x2C }
  - { offsetInCU: 0x77B6, offset: 0x77B6, size: 0x8, addend: 0x0, symName: __ZNSt15_Rb_tree_header8_M_resetEv, symObjAddr: 0xAC, symBinAddr: 0x100000C98, symSize: 0x3C }
  - { offsetInCU: 0x77DE, offset: 0x77DE, size: 0x8, addend: 0x0, symName: __ZNSt15_Rb_tree_header12_M_move_dataERS_, symObjAddr: 0x28, symBinAddr: 0x100000C14, symSize: 0x84 }
  - { offsetInCU: 0x7844, offset: 0x7844, size: 0x8, addend: 0x0, symName: __ZNSt15_Rb_tree_headerC2Ev, symObjAddr: 0x0, symBinAddr: 0x100000BEC, symSize: 0x28 }
  - { offsetInCU: 0x7506, offset: 0xED56, size: 0x8, addend: 0x0, symName: __ZStL8__ioinit, symObjAddr: 0x35C00, symBinAddr: 0x10000C001, symSize: 0x0 }
  - { offsetInCU: 0x7A2A, offset: 0xF27A, size: 0x8, addend: 0x0, symName: __ZNSt15__new_allocatorISt13_Rb_tree_nodeIcEE8allocateEmPKv, symObjAddr: 0x2DB8, symBinAddr: 0x100003F28, symSize: 0x8C }
  - { offsetInCU: 0x7AC8, offset: 0xF318, size: 0x8, addend: 0x0, symName: __ZNSt15__new_allocatorISt13_Rb_tree_nodeINSt7__cxx1112basic_stringIcSt11char_traitsIcESaIcEEEEE8allocateEmPKv, symObjAddr: 0x2D40, symBinAddr: 0x100003EB0, symSize: 0x78 }
  - { offsetInCU: 0x7BEE, offset: 0xF43E, size: 0x8, addend: 0x0, symName: __ZN9__gnu_cxx16__aligned_membufIcE7_M_addrEv, symObjAddr: 0x2D18, symBinAddr: 0x100003E9C, symSize: 0x14 }
  - { offsetInCU: 0x7C16, offset: 0xF466, size: 0x8, addend: 0x0, symName: __ZNSt8_Rb_treeIccSt9_IdentityIcESt4lessIcESaIcEE17_M_construct_nodeIJRKcEEEvPSt13_Rb_tree_nodeIcEDpOT_, symObjAddr: 0x2C68, symBinAddr: 0x100003DEC, symSize: 0xB0 }
  - { offsetInCU: 0x7CCC, offset: 0xF51C, size: 0x8, addend: 0x0, symName: __ZNSt8_Rb_treeIccSt9_IdentityIcESt4lessIcESaIcEE11_M_get_nodeEv, symObjAddr: 0x2C2C, symBinAddr: 0x100003DB0, symSize: 0x3C }
  - { offsetInCU: 0x7D26, offset: 0xF576, size: 0x8, addend: 0x0, symName: __ZSt7forwardIRPSt13_Rb_tree_nodeIcEEOT_RNSt16remove_referenceIS4_E4typeE, symObjAddr: 0x2C18, symBinAddr: 0x100003D9C, symSize: 0x14 }
  - { offsetInCU: 0x7D5A, offset: 0xF5AA, size: 0x8, addend: 0x0, symName: __ZNSt8_Rb_treeINSt7__cxx1112basic_stringIcSt11char_traitsIcESaIcEEES5_St9_IdentityIS5_ESt4lessIS5_ESaIS5_EE17_M_construct_nodeIJRKS5_EEEvPSt13_Rb_tree_nodeIS5_EDpOT_, symObjAddr: 0x2B00, symBinAddr: 0x100003C98, symSize: 0x104 }
  - { offsetInCU: 0x7E08, offset: 0xF658, size: 0x8, addend: 0x0, symName: __ZNSt8_Rb_treeINSt7__cxx1112basic_stringIcSt11char_traitsIcESaIcEEES5_St9_IdentityIS5_ESt4lessIS5_ESaIS5_EE11_M_get_nodeEv, symObjAddr: 0x2AC4, symBinAddr: 0x100003C5C, symSize: 0x3C }
  - { offsetInCU: 0x7E5A, offset: 0xF6AA, size: 0x8, addend: 0x0, symName: __ZNSt15__new_allocatorISt13_Rb_tree_nodeIcEE10deallocateEPS1_m, symObjAddr: 0x2A80, symBinAddr: 0x100003C34, symSize: 0x28 }
  - { offsetInCU: 0x7EC9, offset: 0xF719, size: 0x8, addend: 0x0, symName: __ZN9__gnu_cxx16__aligned_membufIcE6_M_ptrEv, symObjAddr: 0x2A64, symBinAddr: 0x100003C18, symSize: 0x1C }
  - { offsetInCU: 0x7EF1, offset: 0xF741, size: 0x8, addend: 0x0, symName: __ZNSt8_Rb_treeIccSt9_IdentityIcESt4lessIcESaIcEE14_M_create_nodeIJRKcEEEPSt13_Rb_tree_nodeIcEDpOT_, symObjAddr: 0x2A24, symBinAddr: 0x100003BD8, symSize: 0x40 }
  - { offsetInCU: 0x7FD3, offset: 0xF823, size: 0x8, addend: 0x0, symName: __ZNSt4pairIPSt18_Rb_tree_node_baseS1_EC1IRPSt13_Rb_tree_nodeIcERS1_Lb1EEEOT_OT0_, symObjAddr: 0x29DC, symBinAddr: 0x100003B90, symSize: 0x48 }
  - { offsetInCU: 0x7FCC, offset: 0xF81C, size: 0x8, addend: 0x0, symName: __ZNSt8_Rb_treeINSt7__cxx1112basic_stringIcSt11char_traitsIcESaIcEEES5_St9_IdentityIS5_ESt4lessIS5_ESaIS5_EE14_M_create_nodeIJRKS5_EEEPSt13_Rb_tree_nodeIS5_EDpOT_, symObjAddr: 0x2958, symBinAddr: 0x100003B50, symSize: 0x40 }
  - { offsetInCU: 0x801F, offset: 0xF86F, size: 0x8, addend: 0x0, symName: __ZSt7forwardIRPSt18_Rb_tree_node_baseEOT_RNSt16remove_referenceIS3_E4typeE, symObjAddr: 0x2944, symBinAddr: 0x100003B3C, symSize: 0x14 }
  - { offsetInCU: 0x805B, offset: 0xF8AB, size: 0x8, addend: 0x0, symName: __ZSt7forwardIRPSt13_Rb_tree_nodeINSt7__cxx1112basic_stringIcSt11char_traitsIcESaIcEEEEEOT_RNSt16remove_referenceISA_E4typeE, symObjAddr: 0x2930, symBinAddr: 0x100003B28, symSize: 0x14 }
  - { offsetInCU: 0x8095, offset: 0xF8E5, size: 0x8, addend: 0x0, symName: __ZNSt8_Rb_treeIccSt9_IdentityIcESt4lessIcESaIcEE13_M_clone_nodeILb0ENS5_11_Alloc_nodeEEEPSt13_Rb_tree_nodeIcESA_RT0_, symObjAddr: 0x28B4, symBinAddr: 0x100003ACC, symSize: 0x5C }
  - { offsetInCU: 0x8158, offset: 0xF9A8, size: 0x8, addend: 0x0, symName: __ZNSt13_Rb_tree_nodeIcE9_M_valptrEv, symObjAddr: 0x2894, symBinAddr: 0x100003AAC, symSize: 0x20 }
  - { offsetInCU: 0x8180, offset: 0xF9D0, size: 0x8, addend: 0x0, symName: __ZNSt8_Rb_treeIccSt9_IdentityIcESt4lessIcESaIcEE21_M_get_Node_allocatorEv, symObjAddr: 0x2880, symBinAddr: 0x100003A98, symSize: 0x14 }
  - { offsetInCU: 0x81A8, offset: 0xF9F8, size: 0x8, addend: 0x0, symName: __ZNSt8_Rb_treeIccSt9_IdentityIcESt4lessIcESaIcEE15_M_insert_lowerIRKcEESt17_Rb_tree_iteratorIcEPSt18_Rb_tree_node_baseOT_, symObjAddr: 0x279C, symBinAddr: 0x1000039B4, symSize: 0xE4 }
  - { offsetInCU: 0x8224, offset: 0xFA74, size: 0x8, addend: 0x0, symName: __ZNKSt8_Rb_treeIccSt9_IdentityIcESt4lessIcESaIcEE11_Alloc_nodeclIRKcEEPSt13_Rb_tree_nodeIcEOT_, symObjAddr: 0x2760, symBinAddr: 0x100003978, symSize: 0x3C }
  - { offsetInCU: 0x8265, offset: 0xFAB5, size: 0x8, addend: 0x0, symName: __ZNSt17_Rb_tree_iteratorIcEppEv, symObjAddr: 0x2730, symBinAddr: 0x100003948, symSize: 0x30 }
  - { offsetInCU: 0x828D, offset: 0xFADD, size: 0x8, addend: 0x0, symName: __ZNSt17_Rb_tree_iteratorIcEmmEv, symObjAddr: 0x2700, symBinAddr: 0x100003918, symSize: 0x30 }
  - { offsetInCU: 0x8333, offset: 0xFB83, size: 0x8, addend: 0x0, symName: __ZNSt4pairIPSt18_Rb_tree_node_baseS1_EC1IRS1_S4_Lb1EEEOT_OT0_, symObjAddr: 0x26B8, symBinAddr: 0x1000038D0, symSize: 0x48 }
  - { offsetInCU: 0x833F, offset: 0xFB8F, size: 0x8, addend: 0x0, symName: __ZNSt8_Rb_treeIccSt9_IdentityIcESt4lessIcESaIcEE23_M_get_insert_equal_posERKc, symObjAddr: 0x2614, symBinAddr: 0x10000382C, symSize: 0xA4 }
  - { offsetInCU: 0x8393, offset: 0xFBE3, size: 0x8, addend: 0x0, symName: __ZNSt8_Rb_treeIccSt9_IdentityIcESt4lessIcESaIcEE6_S_keyEPKSt13_Rb_tree_nodeIcE, symObjAddr: 0x25B8, symBinAddr: 0x100003804, symSize: 0x28 }
  - { offsetInCU: 0x83C3, offset: 0xFC13, size: 0x8, addend: 0x0, symName: __ZNK9__gnu_cxx16__aligned_membufIcE7_M_addrEv, symObjAddr: 0x25A4, symBinAddr: 0x1000037F0, symSize: 0x14 }
  - { offsetInCU: 0x83ED, offset: 0xFC3D, size: 0x8, addend: 0x0, symName: __ZSt7forwardIbEOT_RNSt16remove_referenceIS0_E4typeE, symObjAddr: 0x2590, symBinAddr: 0x1000037DC, symSize: 0x14 }
  - { offsetInCU: 0x8423, offset: 0xFC73, size: 0x8, addend: 0x0, symName: __ZSt7forwardISt17_Rb_tree_iteratorINSt7__cxx1112basic_stringIcSt11char_traitsIcESaIcEEEEEOT_RNSt16remove_referenceIS8_E4typeE, symObjAddr: 0x257C, symBinAddr: 0x1000037C8, symSize: 0x14 }
  - { offsetInCU: 0x8462, offset: 0xFCB2, size: 0x8, addend: 0x0, symName: __ZNKSt8_Rb_treeINSt7__cxx1112basic_stringIcSt11char_traitsIcESaIcEEES5_St9_IdentityIS5_ESt4lessIS5_ESaIS5_EE11_Alloc_nodeclIRKS5_EEPSt13_Rb_tree_nodeIS5_EOT_, symObjAddr: 0x2540, symBinAddr: 0x10000378C, symSize: 0x3C }
  - { offsetInCU: 0x8521, offset: 0xFD71, size: 0x8, addend: 0x0, symName: __ZNSt4pairIPSt18_Rb_tree_node_baseS1_EC1IS1_S1_Lb1EEERKS1_S5_, symObjAddr: 0x2504, symBinAddr: 0x100003750, symSize: 0x3C }
  - { offsetInCU: 0x852D, offset: 0xFD7D, size: 0x8, addend: 0x0, symName: __ZNSt17_Rb_tree_iteratorINSt7__cxx1112basic_stringIcSt11char_traitsIcESaIcEEEEmmEv, symObjAddr: 0x24D4, symBinAddr: 0x100003720, symSize: 0x30 }
  - { offsetInCU: 0x8619, offset: 0xFE69, size: 0x8, addend: 0x0, symName: __ZNSt4pairIPSt18_Rb_tree_node_baseS1_EC1IRPSt13_Rb_tree_nodeINSt7__cxx1112basic_stringIcSt11char_traitsIcESaIcEEEERS1_Lb1EEEOT_OT0_, symObjAddr: 0x248C, symBinAddr: 0x1000036D8, symSize: 0x48 }
  - { offsetInCU: 0x85E1, offset: 0xFE31, size: 0x8, addend: 0x0, symName: __ZSteqRKSt17_Rb_tree_iteratorINSt7__cxx1112basic_stringIcSt11char_traitsIcESaIcEEEES8_, symObjAddr: 0x245C, symBinAddr: 0x1000036A8, symSize: 0x30 }
  - { offsetInCU: 0x861D, offset: 0xFE6D, size: 0x8, addend: 0x0, symName: __ZNSt8_Rb_treeINSt7__cxx1112basic_stringIcSt11char_traitsIcESaIcEEES5_St9_IdentityIS5_ESt4lessIS5_ESaIS5_EE5beginEv, symObjAddr: 0x2434, symBinAddr: 0x100003680, symSize: 0x28 }
  - { offsetInCU: 0x8645, offset: 0xFE95, size: 0x8, addend: 0x0, symName: __ZNSt8_Rb_treeINSt7__cxx1112basic_stringIcSt11char_traitsIcESaIcEEES5_St9_IdentityIS5_ESt4lessIS5_ESaIS5_EE6_M_endEv, symObjAddr: 0x241C, symBinAddr: 0x100003668, symSize: 0x18 }
  - { offsetInCU: 0x8669, offset: 0xFEB9, size: 0x8, addend: 0x0, symName: __ZStltIcSt11char_traitsIcESaIcEEbRKNSt7__cxx1112basic_stringIT_T0_T1_EESA_, symObjAddr: 0x23F0, symBinAddr: 0x10000363C, symSize: 0x2C }
  - { offsetInCU: 0x86BC, offset: 0xFF0C, size: 0x8, addend: 0x0, symName: __ZNSt8_Rb_treeINSt7__cxx1112basic_stringIcSt11char_traitsIcESaIcEEES5_St9_IdentityIS5_ESt4lessIS5_ESaIS5_EE8_S_rightEPKSt18_Rb_tree_node_base, symObjAddr: 0x23D8, symBinAddr: 0x100003624, symSize: 0x18 }
  - { offsetInCU: 0x86E4, offset: 0xFF34, size: 0x8, addend: 0x0, symName: __ZNSt8_Rb_treeINSt7__cxx1112basic_stringIcSt11char_traitsIcESaIcEEES5_St9_IdentityIS5_ESt4lessIS5_ESaIS5_EE7_S_leftEPKSt18_Rb_tree_node_base, symObjAddr: 0x23C0, symBinAddr: 0x10000360C, symSize: 0x18 }
  - { offsetInCU: 0x870C, offset: 0xFF5C, size: 0x8, addend: 0x0, symName: __ZNSt8_Rb_treeINSt7__cxx1112basic_stringIcSt11char_traitsIcESaIcEEES5_St9_IdentityIS5_ESt4lessIS5_ESaIS5_EE6_S_keyEPKSt13_Rb_tree_nodeIS5_E, symObjAddr: 0x2398, symBinAddr: 0x1000035E4, symSize: 0x28 }
  - { offsetInCU: 0x8734, offset: 0xFF84, size: 0x8, addend: 0x0, symName: __ZNSt8_Rb_treeIccSt9_IdentityIcESt4lessIcESaIcEE10_S_maximumEPSt18_Rb_tree_node_base, symObjAddr: 0x237C, symBinAddr: 0x1000035C8, symSize: 0x1C }
  - { offsetInCU: 0x8760, offset: 0xFFB0, size: 0x8, addend: 0x0, symName: __ZNSt8_Rb_treeIccSt9_IdentityIcESt4lessIcESaIcEE12_M_rightmostEv, symObjAddr: 0x2364, symBinAddr: 0x1000035B0, symSize: 0x18 }
  - { offsetInCU: 0x8784, offset: 0xFFD4, size: 0x8, addend: 0x0, symName: __ZNSt8_Rb_treeIccSt9_IdentityIcESt4lessIcESaIcEE10_S_minimumEPSt18_Rb_tree_node_base, symObjAddr: 0x2348, symBinAddr: 0x100003594, symSize: 0x1C }
  - { offsetInCU: 0x87B0, offset: 0x10000, size: 0x8, addend: 0x0, symName: __ZNSt8_Rb_treeIccSt9_IdentityIcESt4lessIcESaIcEE11_M_leftmostEv, symObjAddr: 0x2330, symBinAddr: 0x10000357C, symSize: 0x18 }
  - { offsetInCU: 0x87D8, offset: 0x10028, size: 0x8, addend: 0x0, symName: __ZNSt8_Rb_treeIccSt9_IdentityIcESt4lessIcESaIcEE7_M_copyILb0ENS5_11_Alloc_nodeEEEPSt13_Rb_tree_nodeIcESA_PSt18_Rb_tree_node_baseRT0_, symObjAddr: 0x21E8, symBinAddr: 0x100003434, symSize: 0x148 }
  - { offsetInCU: 0x88A2, offset: 0x100F2, size: 0x8, addend: 0x0, symName: __ZNSt8_Rb_treeIccSt9_IdentityIcESt4lessIcESaIcEE11_M_put_nodeEPSt13_Rb_tree_nodeIcE, symObjAddr: 0x219C, symBinAddr: 0x1000033E8, symSize: 0x4C }
  - { offsetInCU: 0x890C, offset: 0x1015C, size: 0x8, addend: 0x0, symName: __ZNSt8_Rb_treeIccSt9_IdentityIcESt4lessIcESaIcEE15_M_destroy_nodeEPSt13_Rb_tree_nodeIcE, symObjAddr: 0x2144, symBinAddr: 0x100003390, symSize: 0x58 }
  - { offsetInCU: 0x8998, offset: 0x101E8, size: 0x8, addend: 0x0, symName: __ZNSt8_Rb_treeIccSt9_IdentityIcESt4lessIcESaIcEE21_M_insert_equal_lowerIRKcEESt17_Rb_tree_iteratorIcEOT_, symObjAddr: 0x2084, symBinAddr: 0x1000032D0, symSize: 0xC0 }
  - { offsetInCU: 0x89F9, offset: 0x10249, size: 0x8, addend: 0x0, symName: __ZNSt8_Rb_treeIccSt9_IdentityIcESt4lessIcESaIcEE10_M_insert_IRKcNS5_11_Alloc_nodeEEESt17_Rb_tree_iteratorIcEPSt18_Rb_tree_node_baseSD_OT_RT0_, symObjAddr: 0x1F94, symBinAddr: 0x1000031E0, symSize: 0xF0 }
  - { offsetInCU: 0x8A96, offset: 0x102E6, size: 0x8, addend: 0x0, symName: __ZSt7forwardIRKcEOT_RNSt16remove_referenceIS2_E4typeE, symObjAddr: 0x1F80, symBinAddr: 0x1000031CC, symSize: 0x14 }
  - { offsetInCU: 0x8ACA, offset: 0x1031A, size: 0x8, addend: 0x0, symName: __ZNKSt9_IdentityIcEclERKc, symObjAddr: 0x1F68, symBinAddr: 0x1000031B4, symSize: 0x18 }
  - { offsetInCU: 0x8B02, offset: 0x10352, size: 0x8, addend: 0x0, symName: __ZNSt8_Rb_treeIccSt9_IdentityIcESt4lessIcESaIcEE28_M_get_insert_hint_equal_posESt23_Rb_tree_const_iteratorIcERKc, symObjAddr: 0x1C58, symBinAddr: 0x100002EA4, symSize: 0x310 }
  - { offsetInCU: 0x8BFB, offset: 0x1044B, size: 0x8, addend: 0x0, symName: __ZNSt17_Rb_tree_iteratorIcEC1EPSt18_Rb_tree_node_base, symObjAddr: 0x1C34, symBinAddr: 0x100002E80, symSize: 0x24 }
  - { offsetInCU: 0x8BF5, offset: 0x10445, size: 0x8, addend: 0x0, symName: __ZNK9__gnu_cxx17__normal_iteratorIPKcNSt7__cxx1112basic_stringIcSt11char_traitsIcESaIcEEEE4baseEv, symObjAddr: 0x1C20, symBinAddr: 0x100002E6C, symSize: 0x14 }
  - { offsetInCU: 0x8C31, offset: 0x10481, size: 0x8, addend: 0x0, symName: __ZNKSt23_Rb_tree_const_iteratorIcE13_M_const_castEv, symObjAddr: 0x1B4C, symBinAddr: 0x100002E44, symSize: 0x28 }
  - { offsetInCU: 0x8C59, offset: 0x104A9, size: 0x8, addend: 0x0, symName: __ZNSt8_Rb_treeIccSt9_IdentityIcESt4lessIcESaIcEE12_M_erase_auxESt23_Rb_tree_const_iteratorIcE, symObjAddr: 0x1AF4, symBinAddr: 0x100002DEC, symSize: 0x58 }
  - { offsetInCU: 0x8CA1, offset: 0x104F1, size: 0x8, addend: 0x0, symName: __ZNKSt4lessIcEclERKcS2_, symObjAddr: 0x1AC0, symBinAddr: 0x100002DB8, symSize: 0x34 }
  - { offsetInCU: 0x8CE5, offset: 0x10535, size: 0x8, addend: 0x0, symName: __ZNSt8_Rb_treeIccSt9_IdentityIcESt4lessIcESaIcEE6_S_keyEPKSt18_Rb_tree_node_base, symObjAddr: 0x1AA4, symBinAddr: 0x100002D9C, symSize: 0x1C }
  - { offsetInCU: 0x8D13, offset: 0x10563, size: 0x8, addend: 0x0, symName: __ZSteqRKSt17_Rb_tree_iteratorIcES2_, symObjAddr: 0x1A74, symBinAddr: 0x100002D6C, symSize: 0x30 }
  - { offsetInCU: 0x8D4F, offset: 0x1059F, size: 0x8, addend: 0x0, symName: __ZNSt8_Rb_treeIccSt9_IdentityIcESt4lessIcESaIcEE14_M_lower_boundEPSt13_Rb_tree_nodeIcEPSt18_Rb_tree_node_baseRKc, symObjAddr: 0x19D8, symBinAddr: 0x100002CD0, symSize: 0x9C }
  - { offsetInCU: 0x8DA7, offset: 0x105F7, size: 0x8, addend: 0x0, symName: __ZNSt8_Rb_treeIccSt9_IdentityIcESt4lessIcESaIcEE6_M_endEv, symObjAddr: 0x19C0, symBinAddr: 0x100002CB8, symSize: 0x18 }
  - { offsetInCU: 0x8DCF, offset: 0x1061F, size: 0x8, addend: 0x0, symName: __ZNK9__gnu_cxx16__aligned_membufIcE6_M_ptrEv, symObjAddr: 0x19A4, symBinAddr: 0x100002C9C, symSize: 0x1C }
  - { offsetInCU: 0x8E55, offset: 0x106A5, size: 0x8, addend: 0x0, symName: __ZNSt23_Rb_tree_const_iteratorIcEC1EPKSt18_Rb_tree_node_base, symObjAddr: 0x1980, symBinAddr: 0x100002C78, symSize: 0x24 }
  - { offsetInCU: 0x8EDD, offset: 0x1072D, size: 0x8, addend: 0x0, symName: __ZNSt23_Rb_tree_const_iteratorINSt7__cxx1112basic_stringIcSt11char_traitsIcESaIcEEEEC1ERKSt17_Rb_tree_iteratorIS5_E, symObjAddr: 0x1958, symBinAddr: 0x100002C50, symSize: 0x28 }
  - { offsetInCU: 0x8E9B, offset: 0x106EB, size: 0x8, addend: 0x0, symName: __ZSt7forwardIRbEOT_RNSt16remove_referenceIS1_E4typeE, symObjAddr: 0x1944, symBinAddr: 0x100002C3C, symSize: 0x14 }
  - { offsetInCU: 0x8ED1, offset: 0x10721, size: 0x8, addend: 0x0, symName: __ZSt7forwardIRSt17_Rb_tree_iteratorINSt7__cxx1112basic_stringIcSt11char_traitsIcESaIcEEEEEOT_RNSt16remove_referenceIS9_E4typeE, symObjAddr: 0x1930, symBinAddr: 0x100002C28, symSize: 0x14 }
  - { offsetInCU: 0x8F8F, offset: 0x107DF, size: 0x8, addend: 0x0, symName: __ZNSt17_Rb_tree_iteratorINSt7__cxx1112basic_stringIcSt11char_traitsIcESaIcEEEEC1EPSt18_Rb_tree_node_base, symObjAddr: 0x190C, symBinAddr: 0x100002C04, symSize: 0x24 }
  - { offsetInCU: 0x9003, offset: 0x10853, size: 0x8, addend: 0x0, symName: __ZNSt4pairISt17_Rb_tree_iteratorINSt7__cxx1112basic_stringIcSt11char_traitsIcESaIcEEEEbEC1IS7_bLb1EEEOT_OT0_, symObjAddr: 0x18C0, symBinAddr: 0x100002BB8, symSize: 0x4C }
  - { offsetInCU: 0x8FE6, offset: 0x10836, size: 0x8, addend: 0x0, symName: __ZNSt8_Rb_treeINSt7__cxx1112basic_stringIcSt11char_traitsIcESaIcEEES5_St9_IdentityIS5_ESt4lessIS5_ESaIS5_EE10_M_insert_IRKS5_NSB_11_Alloc_nodeEEESt17_Rb_tree_iteratorIS5_EPSt18_Rb_tree_node_baseSJ_OT_RT0_, symObjAddr: 0x17D0, symBinAddr: 0x100002AC8, symSize: 0xF0 }
  - { offsetInCU: 0x9083, offset: 0x108D3, size: 0x8, addend: 0x0, symName: __ZSt7forwardIRKNSt7__cxx1112basic_stringIcSt11char_traitsIcESaIcEEEEOT_RNSt16remove_referenceIS8_E4typeE, symObjAddr: 0x17BC, symBinAddr: 0x100002AB4, symSize: 0x14 }
  - { offsetInCU: 0x9158, offset: 0x109A8, size: 0x8, addend: 0x0, symName: __ZNSt8_Rb_treeINSt7__cxx1112basic_stringIcSt11char_traitsIcESaIcEEES5_St9_IdentityIS5_ESt4lessIS5_ESaIS5_EE11_Alloc_nodeC1ERSB_, symObjAddr: 0x1798, symBinAddr: 0x100002A90, symSize: 0x24 }
  - { offsetInCU: 0x9108, offset: 0x10958, size: 0x8, addend: 0x0, symName: __ZNKSt9_IdentityINSt7__cxx1112basic_stringIcSt11char_traitsIcESaIcEEEEclERKS5_, symObjAddr: 0x1780, symBinAddr: 0x100002A78, symSize: 0x18 }
  - { offsetInCU: 0x9140, offset: 0x10990, size: 0x8, addend: 0x0, symName: __ZNSt8_Rb_treeINSt7__cxx1112basic_stringIcSt11char_traitsIcESaIcEEES5_St9_IdentityIS5_ESt4lessIS5_ESaIS5_EE24_M_get_insert_unique_posERKS5_, symObjAddr: 0x1628, symBinAddr: 0x100002920, symSize: 0x158 }
  - { offsetInCU: 0x91BD, offset: 0x10A0D, size: 0x8, addend: 0x0, symName: __ZNKSt4lessINSt7__cxx1112basic_stringIcSt11char_traitsIcESaIcEEEEclERKS5_S8_, symObjAddr: 0x15DC, symBinAddr: 0x1000028F8, symSize: 0x28 }
  - { offsetInCU: 0x9201, offset: 0x10A51, size: 0x8, addend: 0x0, symName: __ZNSt8_Rb_treeINSt7__cxx1112basic_stringIcSt11char_traitsIcESaIcEEES5_St9_IdentityIS5_ESt4lessIS5_ESaIS5_EE6_S_keyEPKSt18_Rb_tree_node_base, symObjAddr: 0x15C0, symBinAddr: 0x1000028DC, symSize: 0x1C }
  - { offsetInCU: 0x922F, offset: 0x10A7F, size: 0x8, addend: 0x0, symName: __ZSteqRKSt23_Rb_tree_const_iteratorINSt7__cxx1112basic_stringIcSt11char_traitsIcESaIcEEEES8_, symObjAddr: 0x1590, symBinAddr: 0x1000028AC, symSize: 0x30 }
  - { offsetInCU: 0x926B, offset: 0x10ABB, size: 0x8, addend: 0x0, symName: __ZNKSt8_Rb_treeINSt7__cxx1112basic_stringIcSt11char_traitsIcESaIcEEES5_St9_IdentityIS5_ESt4lessIS5_ESaIS5_EE14_M_lower_boundEPKSt13_Rb_tree_nodeIS5_EPKSt18_Rb_tree_node_baseRKS5_, symObjAddr: 0x14F4, symBinAddr: 0x100002810, symSize: 0x9C }
  - { offsetInCU: 0x92C3, offset: 0x10B13, size: 0x8, addend: 0x0, symName: __ZNKSt8_Rb_treeINSt7__cxx1112basic_stringIcSt11char_traitsIcESaIcEEES5_St9_IdentityIS5_ESt4lessIS5_ESaIS5_EE6_M_endEv, symObjAddr: 0x14DC, symBinAddr: 0x1000027F8, symSize: 0x18 }
  - { offsetInCU: 0x92EB, offset: 0x10B3B, size: 0x8, addend: 0x0, symName: __ZNKSt8_Rb_treeINSt7__cxx1112basic_stringIcSt11char_traitsIcESaIcEEES5_St9_IdentityIS5_ESt4lessIS5_ESaIS5_EE8_M_beginEv, symObjAddr: 0x14C4, symBinAddr: 0x1000027E0, symSize: 0x18 }
  - { offsetInCU: 0x9313, offset: 0x10B63, size: 0x8, addend: 0x0, symName: __ZNSt8_Rb_treeIccSt9_IdentityIcESt4lessIcESaIcEE7_M_copyILb0ENS5_11_Alloc_nodeEEEPSt13_Rb_tree_nodeIcERKS5_RT0_, symObjAddr: 0x1430, symBinAddr: 0x10000274C, symSize: 0x94 }
  - { offsetInCU: 0x93CE, offset: 0x10C1E, size: 0x8, addend: 0x0, symName: __ZNSt20_Rb_tree_key_compareISt4lessIcEEC2ERKS1_, symObjAddr: 0x1418, symBinAddr: 0x100002734, symSize: 0x18 }
  - { offsetInCU: 0x9401, offset: 0x10C51, size: 0x8, addend: 0x0, symName: __ZNKSt8_Rb_treeIccSt9_IdentityIcESt4lessIcESaIcEE9_M_mbeginEv, symObjAddr: 0x1400, symBinAddr: 0x10000271C, symSize: 0x18 }
  - { offsetInCU: 0x9429, offset: 0x10C79, size: 0x8, addend: 0x0, symName: __ZNSt8_Rb_treeIccSt9_IdentityIcESt4lessIcESaIcEE12_M_drop_nodeEPSt13_Rb_tree_nodeIcE, symObjAddr: 0x13CC, symBinAddr: 0x1000026E8, symSize: 0x34 }
  - { offsetInCU: 0x945D, offset: 0x10CAD, size: 0x8, addend: 0x0, symName: __ZNSt8_Rb_treeIccSt9_IdentityIcESt4lessIcESaIcEE7_S_leftEPSt18_Rb_tree_node_base, symObjAddr: 0x13B4, symBinAddr: 0x1000026D0, symSize: 0x18 }
  - { offsetInCU: 0x9485, offset: 0x10CD5, size: 0x8, addend: 0x0, symName: __ZNSt8_Rb_treeIccSt9_IdentityIcESt4lessIcESaIcEE8_S_rightEPSt18_Rb_tree_node_base, symObjAddr: 0x139C, symBinAddr: 0x1000026B8, symSize: 0x18 }
  - { offsetInCU: 0x94B1, offset: 0x10D01, size: 0x8, addend: 0x0, symName: __ZNSt8_Rb_treeIccSt9_IdentityIcESt4lessIcESaIcEE16_M_insert_equal_IRKcNS5_11_Alloc_nodeEEESt17_Rb_tree_iteratorIcESt23_Rb_tree_const_iteratorIcEOT_RT0_, symObjAddr: 0x1304, symBinAddr: 0x100002620, symSize: 0x98 }
  - { offsetInCU: 0x952B, offset: 0x10D7B, size: 0x8, addend: 0x0, symName: __ZNK9__gnu_cxx17__normal_iteratorIPKcNSt7__cxx1112basic_stringIcSt11char_traitsIcESaIcEEEEdeEv, symObjAddr: 0x12EC, symBinAddr: 0x100002608, symSize: 0x18 }
  - { offsetInCU: 0x9553, offset: 0x10DA3, size: 0x8, addend: 0x0, symName: __ZNSt8_Rb_treeIccSt9_IdentityIcESt4lessIcESaIcEE3endEv, symObjAddr: 0x12C4, symBinAddr: 0x1000025E0, symSize: 0x28 }
  - { offsetInCU: 0x957B, offset: 0x10DCB, size: 0x8, addend: 0x0, symName: __ZN9__gnu_cxx17__normal_iteratorIPKcNSt7__cxx1112basic_stringIcSt11char_traitsIcESaIcEEEEppEv, symObjAddr: 0x129C, symBinAddr: 0x1000025B8, symSize: 0x28 }
  - { offsetInCU: 0x95A5, offset: 0x10DF5, size: 0x8, addend: 0x0, symName: __ZN9__gnu_cxxneIPKcNSt7__cxx1112basic_stringIcSt11char_traitsIcESaIcEEEEEbRKNS_17__normal_iteratorIT_T0_EESE_, symObjAddr: 0x1258, symBinAddr: 0x100002574, symSize: 0x44 }
  - { offsetInCU: 0x9659, offset: 0x10EA9, size: 0x8, addend: 0x0, symName: __ZNSt8_Rb_treeIccSt9_IdentityIcESt4lessIcESaIcEE11_Alloc_nodeC1ERS5_, symObjAddr: 0x1234, symBinAddr: 0x100002550, symSize: 0x24 }
  - { offsetInCU: 0x9692, offset: 0x10EE2, size: 0x8, addend: 0x0, symName: __ZNSt15__new_allocatorISt13_Rb_tree_nodeIcEED2Ev, symObjAddr: 0x1220, symBinAddr: 0x10000253C, symSize: 0x14 }
  - { offsetInCU: 0x96C9, offset: 0x10F19, size: 0x8, addend: 0x0, symName: __ZNSt20_Rb_tree_key_compareISt4lessIcEEC2Ev, symObjAddr: 0x120C, symBinAddr: 0x100002528, symSize: 0x14 }
  - { offsetInCU: 0x96D9, offset: 0x10F29, size: 0x8, addend: 0x0, symName: __ZNSt8_Rb_treeIccSt9_IdentityIcESt4lessIcESaIcEE5eraseB5cxx11ESt23_Rb_tree_const_iteratorIcE, symObjAddr: 0x1100, symBinAddr: 0x100002498, symSize: 0x90 }
  - { offsetInCU: 0x979A, offset: 0x10FEA, size: 0x8, addend: 0x0, symName: __ZNSt23_Rb_tree_const_iteratorIcEC1ERKSt17_Rb_tree_iteratorIcE, symObjAddr: 0x10D8, symBinAddr: 0x100002470, symSize: 0x28 }
  - { offsetInCU: 0x978B, offset: 0x10FDB, size: 0x8, addend: 0x0, symName: __ZNSt8_Rb_treeIccSt9_IdentityIcESt4lessIcESaIcEE4findERKc, symObjAddr: 0x1030, symBinAddr: 0x1000023C8, symSize: 0xA8 }
  - { offsetInCU: 0x97D3, offset: 0x11023, size: 0x8, addend: 0x0, symName: __ZNKSt13_Rb_tree_nodeIcE9_M_valptrEv, symObjAddr: 0x1010, symBinAddr: 0x1000023A8, symSize: 0x20 }
  - { offsetInCU: 0x97FB, offset: 0x1104B, size: 0x8, addend: 0x0, symName: __ZNKSt8_Rb_treeIccSt9_IdentityIcESt4lessIcESaIcEE3endEv, symObjAddr: 0xFE8, symBinAddr: 0x100002380, symSize: 0x28 }
  - { offsetInCU: 0x9823, offset: 0x11073, size: 0x8, addend: 0x0, symName: __ZNKSt8_Rb_treeIccSt9_IdentityIcESt4lessIcESaIcEE5beginEv, symObjAddr: 0xFC0, symBinAddr: 0x100002358, symSize: 0x28 }
  - { offsetInCU: 0x9917, offset: 0x11167, size: 0x8, addend: 0x0, symName: __ZNSt4pairISt23_Rb_tree_const_iteratorINSt7__cxx1112basic_stringIcSt11char_traitsIcESaIcEEEEbEC1IRSt17_Rb_tree_iteratorIS6_ERbLb1EEEOT_OT0_, symObjAddr: 0xF6C, symBinAddr: 0x100002304, symSize: 0x54 }
  - { offsetInCU: 0x98D5, offset: 0x11125, size: 0x8, addend: 0x0, symName: __ZNSt8_Rb_treeINSt7__cxx1112basic_stringIcSt11char_traitsIcESaIcEEES5_St9_IdentityIS5_ESt4lessIS5_ESaIS5_EE16_M_insert_uniqueIRKS5_EESt4pairISt17_Rb_tree_iteratorIS5_EbEOT_, symObjAddr: 0xEA0, symBinAddr: 0x100002238, symSize: 0xCC }
  - { offsetInCU: 0x994C, offset: 0x1119C, size: 0x8, addend: 0x0, symName: __ZNKSt8_Rb_treeINSt7__cxx1112basic_stringIcSt11char_traitsIcESaIcEEES5_St9_IdentityIS5_ESt4lessIS5_ESaIS5_EE4findERKS5_, symObjAddr: 0xDD0, symBinAddr: 0x100002190, symSize: 0xA8 }
  - { offsetInCU: 0x9994, offset: 0x111E4, size: 0x8, addend: 0x0, symName: __ZNKSt8_Rb_treeIccSt9_IdentityIcESt4lessIcESaIcEE4sizeEv, symObjAddr: 0xDB8, symBinAddr: 0x100002178, symSize: 0x18 }
  - { offsetInCU: 0x99BC, offset: 0x1120C, size: 0x8, addend: 0x0, symName: __ZNSt8_Rb_treeIccSt9_IdentityIcESt4lessIcESaIcEE7_M_copyERKS5_, symObjAddr: 0xD80, symBinAddr: 0x100002140, symSize: 0x38 }
  - { offsetInCU: 0x9A04, offset: 0x11254, size: 0x8, addend: 0x0, symName: __ZNSt8_Rb_treeIccSt9_IdentityIcESt4lessIcESaIcEE7_M_rootEv, symObjAddr: 0xD68, symBinAddr: 0x100002128, symSize: 0x18 }
  - { offsetInCU: 0x9A2C, offset: 0x1127C, size: 0x8, addend: 0x0, symName: __ZNKSt8_Rb_treeIccSt9_IdentityIcESt4lessIcESaIcEE7_M_rootEv, symObjAddr: 0xD50, symBinAddr: 0x100002110, symSize: 0x18 }
  - { offsetInCU: 0x9AC6, offset: 0x11316, size: 0x8, addend: 0x0, symName: __ZNSt8_Rb_treeIccSt9_IdentityIcESt4lessIcESaIcEE13_Rb_tree_implIS3_Lb1EEC1ERKS7_, symObjAddr: 0xCB0, symBinAddr: 0x100002070, symSize: 0xA0 }
  - { offsetInCU: 0x9BAD, offset: 0x113FD, size: 0x8, addend: 0x0, symName: __ZNSt8_Rb_treeIccSt9_IdentityIcESt4lessIcESaIcEE8_M_beginEv, symObjAddr: 0xC94, symBinAddr: 0x100002054, symSize: 0x1C }
  - { offsetInCU: 0x9BD5, offset: 0x11425, size: 0x8, addend: 0x0, symName: __ZNSt8_Rb_treeIccSt9_IdentityIcESt4lessIcESaIcEE8_M_eraseEPSt13_Rb_tree_nodeIcE, symObjAddr: 0xC30, symBinAddr: 0x100001FF0, symSize: 0x64 }
  - { offsetInCU: 0x9C2F, offset: 0x1147F, size: 0x8, addend: 0x0, symName: __ZNSt8_Rb_treeIccSt9_IdentityIcESt4lessIcESaIcEE21_M_insert_range_equalIN9__gnu_cxx17__normal_iteratorIPKcNSt7__cxx1112basic_stringIcSt11char_traitsIcES4_EEEEEENSt9enable_ifIXsrSt7is_sameIcNSt15iterator_traitsIT_E10value_typeEE5valueEvE4typeESK_SK_, symObjAddr: 0xBA0, symBinAddr: 0x100001F60, symSize: 0x90 }
  - { offsetInCU: 0x9D0E, offset: 0x1155E, size: 0x8, addend: 0x0, symName: __ZNSt8_Rb_treeIccSt9_IdentityIcESt4lessIcESaIcEE13_Rb_tree_implIS3_Lb1EEC1Ev, symObjAddr: 0xB5C, symBinAddr: 0x100001F1C, symSize: 0x44 }
  - { offsetInCU: 0x9D2C, offset: 0x1157C, size: 0x8, addend: 0x0, symName: __ZNSt8multisetIcSt4lessIcESaIcEE5eraseB5cxx11ESt23_Rb_tree_const_iteratorIcE, symObjAddr: 0xA7C, symBinAddr: 0x100001EE4, symSize: 0x38 }
  - { offsetInCU: 0x9D64, offset: 0x115B4, size: 0x8, addend: 0x0, symName: __ZNSt8multisetIcSt4lessIcESaIcEE4findERKc, symObjAddr: 0xA44, symBinAddr: 0x100001EAC, symSize: 0x38 }
  - { offsetInCU: 0x9D9C, offset: 0x115EC, size: 0x8, addend: 0x0, symName: __ZNKSt23_Rb_tree_const_iteratorIcEdeEv, symObjAddr: 0xA24, symBinAddr: 0x100001E8C, symSize: 0x20 }
  - { offsetInCU: 0x9DC4, offset: 0x11614, size: 0x8, addend: 0x0, symName: __ZNSt23_Rb_tree_const_iteratorIcEppEv, symObjAddr: 0x9F4, symBinAddr: 0x100001E5C, symSize: 0x30 }
  - { offsetInCU: 0x9DEE, offset: 0x1163E, size: 0x8, addend: 0x0, symName: __ZStneRKSt23_Rb_tree_const_iteratorIcES2_, symObjAddr: 0x9C4, symBinAddr: 0x100001E2C, symSize: 0x30 }
  - { offsetInCU: 0x9E2A, offset: 0x1167A, size: 0x8, addend: 0x0, symName: __ZNKSt8multisetIcSt4lessIcESaIcEE3endEv, symObjAddr: 0x9A8, symBinAddr: 0x100001E10, symSize: 0x1C }
  - { offsetInCU: 0x9E52, offset: 0x116A2, size: 0x8, addend: 0x0, symName: __ZNKSt8multisetIcSt4lessIcESaIcEE5beginEv, symObjAddr: 0x98C, symBinAddr: 0x100001DF4, symSize: 0x1C }
  - { offsetInCU: 0x9E7A, offset: 0x116CA, size: 0x8, addend: 0x0, symName: __ZNSt3setINSt7__cxx1112basic_stringIcSt11char_traitsIcESaIcEEESt4lessIS5_ESaIS5_EE6insertERKS5_, symObjAddr: 0x94C, symBinAddr: 0x100001DB4, symSize: 0x40 }
  - { offsetInCU: 0x9EC2, offset: 0x11712, size: 0x8, addend: 0x0, symName: __ZNKSt3setINSt7__cxx1112basic_stringIcSt11char_traitsIcESaIcEEESt4lessIS5_ESaIS5_EE4findERKS5_, symObjAddr: 0x8DC, symBinAddr: 0x100001D90, symSize: 0x24 }
  - { offsetInCU: 0x9EFA, offset: 0x1174A, size: 0x8, addend: 0x0, symName: __ZNKSt8multisetIcSt4lessIcESaIcEE4sizeEv, symObjAddr: 0x8C0, symBinAddr: 0x100001D74, symSize: 0x1C }
  - { offsetInCU: 0x9F7C, offset: 0x117CC, size: 0x8, addend: 0x0, symName: __ZNSt8_Rb_treeIccSt9_IdentityIcESt4lessIcESaIcEEC1ERKS5_, symObjAddr: 0x83C, symBinAddr: 0x100001CF0, symSize: 0x84 }
  - { offsetInCU: 0x9FC5, offset: 0x11815, size: 0x8, addend: 0x0, symName: __ZNSt8_Rb_treeIccSt9_IdentityIcESt4lessIcESaIcEED1Ev, symObjAddr: 0x808, symBinAddr: 0x100001CBC, symSize: 0x34 }
  - { offsetInCU: 0xA06E, offset: 0x118BE, size: 0x8, addend: 0x0, symName: __ZNSt8multisetIcSt4lessIcESaIcEEC1IN9__gnu_cxx17__normal_iteratorIPKcNSt7__cxx1112basic_stringIcSt11char_traitsIcES2_EEEEEET_SF_, symObjAddr: 0x7A4, symBinAddr: 0x100001C58, symSize: 0x64 }
  - { offsetInCU: 0xA077, offset: 0x118C7, size: 0x8, addend: 0x0, symName: __ZNSt8_Rb_treeIccSt9_IdentityIcESt4lessIcESaIcEEC1Ev, symObjAddr: 0x784, symBinAddr: 0x100001C38, symSize: 0x20 }
  - { offsetInCU: 0xA0D8, offset: 0x11928, size: 0x8, addend: 0x0, symName: __ZNSt8_Rb_treeIccSt9_IdentityIcESt4lessIcESaIcEE13_Rb_tree_implIS3_Lb1EED1Ev, symObjAddr: 0x758, symBinAddr: 0x100001C0C, symSize: 0x2C }
  - { offsetInCU: 0xA122, offset: 0x11972, size: 0x8, addend: 0x0, symName: __Z9numDashesRKNSt7__cxx1112basic_stringIcSt11char_traitsIcESaIcEEE, symObjAddr: 0x654, symBinAddr: 0x100001B80, symSize: 0x8C }
  - { offsetInCU: 0xA1B8, offset: 0x11A08, size: 0x8, addend: 0x0, symName: __Z8findWordjNSt7__cxx1112basic_stringIcSt11char_traitsIcESaIcEEESt8multisetIcSt4lessIcES3_ERKSt3setIS4_S6_IS4_ESaIS4_EERSC_, symObjAddr: 0x2E8, symBinAddr: 0x100001814, symSize: 0x36C }
  - { offsetInCU: 0xA278, offset: 0x11AC8, size: 0x8, addend: 0x0, symName: __Z6wordleRKNSt7__cxx1112basic_stringIcSt11char_traitsIcESaIcEEES6_RKSt3setIS4_St4lessIS4_ESaIS4_EE, symObjAddr: 0x1D0, symBinAddr: 0x1000016FC, symSize: 0x118 }
  - { offsetInCU: 0xA2D2, offset: 0x11B22, size: 0x8, addend: 0x0, symName: __ZNSt8multisetIcSt4lessIcESaIcEEC1ERKS3_, symObjAddr: 0x1A8, symBinAddr: 0x1000016D4, symSize: 0x28 }
  - { offsetInCU: 0xA31B, offset: 0x11B6B, size: 0x8, addend: 0x0, symName: __ZNSt8multisetIcSt4lessIcESaIcEED1Ev, symObjAddr: 0x188, symBinAddr: 0x1000016B4, symSize: 0x20 }
  - { offsetInCU: 0xA31A, offset: 0x11B6A, size: 0x8, addend: 0x0, symName: __ZNSt18_Rb_tree_node_base10_S_maximumEPS_, symObjAddr: 0x64, symBinAddr: 0x100001680, symSize: 0x34 }
  - { offsetInCU: 0xA341, offset: 0x11B91, size: 0x8, addend: 0x0, symName: __ZNSt18_Rb_tree_node_base10_S_minimumEPS_, symObjAddr: 0x30, symBinAddr: 0x10000164C, symSize: 0x34 }
  - { offsetInCU: 0xA375, offset: 0x11BC5, size: 0x8, addend: 0x0, symName: __ZdlPvS_, symObjAddr: 0x18, symBinAddr: 0x100001634, symSize: 0x18 }
  - { offsetInCU: 0xA3A7, offset: 0x11BF7, size: 0x8, addend: 0x0, symName: __ZnwmPv, symObjAddr: 0x0, symBinAddr: 0x10000161C, symSize: 0x18 }
  - { offsetInCU: 0x3F67, offset: 0x15B91, size: 0x8, addend: 0x0, symName: __Z7isalphai, symObjAddr: 0xC8, symBinAddr: 0x10000409C, symSize: 0x20 }
  - { offsetInCU: 0x4037, offset: 0x15C61, size: 0x8, addend: 0x0, symName: __Z7isupperi, symObjAddr: 0xE8, symBinAddr: 0x1000040BC, symSize: 0x20 }
  - { offsetInCU: 0x4759, offset: 0x16383, size: 0x8, addend: 0x0, symName: __ZStL8__ioinit, symObjAddr: 0x25B50, symBinAddr: 0x10000C008, symSize: 0x0 }
  - { offsetInCU: 0x4953, offset: 0x1657D, size: 0x8, addend: 0x0, symName: __ZNK9__gnu_cxx17__normal_iteratorIPcNSt7__cxx1112basic_stringIcSt11char_traitsIcESaIcEEEE4baseEv, symObjAddr: 0x6F4, symBinAddr: 0x100004478, symSize: 0x14 }
  - { offsetInCU: 0x497B, offset: 0x165A5, size: 0x8, addend: 0x0, symName: __ZNKSt8_Rb_treeINSt7__cxx1112basic_stringIcSt11char_traitsIcESaIcEEES5_St9_IdentityIS5_ESt4lessIS5_ESaIS5_EE4sizeEv, symObjAddr: 0x6DC, symBinAddr: 0x100004460, symSize: 0x18 }
  - { offsetInCU: 0x49A3, offset: 0x165CD, size: 0x8, addend: 0x0, symName: __ZNK9__gnu_cxx17__normal_iteratorIPcNSt7__cxx1112basic_stringIcSt11char_traitsIcESaIcEEEEdeEv, symObjAddr: 0x5DC, symBinAddr: 0x100004448, symSize: 0x18 }
  - { offsetInCU: 0x49CB, offset: 0x165F5, size: 0x8, addend: 0x0, symName: __ZN9__gnu_cxx17__normal_iteratorIPcNSt7__cxx1112basic_stringIcSt11char_traitsIcESaIcEEEEppEv, symObjAddr: 0x5B4, symBinAddr: 0x100004420, symSize: 0x28 }
  - { offsetInCU: 0x49F5, offset: 0x1661F, size: 0x8, addend: 0x0, symName: __ZN9__gnu_cxxneIPcNSt7__cxx1112basic_stringIcSt11char_traitsIcESaIcEEEEEbRKNS_17__normal_iteratorIT_T0_EESD_, symObjAddr: 0x570, symBinAddr: 0x1000043DC, symSize: 0x44 }
  - { offsetInCU: 0x4A49, offset: 0x16673, size: 0x8, addend: 0x0, symName: __ZNKSt3setINSt7__cxx1112basic_stringIcSt11char_traitsIcESaIcEEESt4lessIS5_ESaIS5_EE4sizeEv, symObjAddr: 0x554, symBinAddr: 0x1000043C0, symSize: 0x1C }
  - { offsetInCU: 0x4AC4, offset: 0x166EE, size: 0x8, addend: 0x0, symName: __Z13readDictWordsNSt7__cxx1112basic_stringIcSt11char_traitsIcESaIcEEE, symObjAddr: 0x1F8, symBinAddr: 0x1000040DC, symSize: 0x2E4 }
  - { offsetInCU: 0x4AAA, offset: 0x166D4, size: 0x8, addend: 0x0, symName: __ZZ13readDictWordsNSt7__cxx1112basic_stringIcSt11char_traitsIcESaIcEEEE4dict, symObjAddr: 0x25B58, symBinAddr: 0x10000C010, symSize: 0x0 }
  - { offsetInCU: 0x4B6C, offset: 0x16796, size: 0x8, addend: 0x0, symName: __Z8__istypeim, symObjAddr: 0x50, symBinAddr: 0x100004024, symSize: 0x78 }
  - { offsetInCU: 0x4BAA, offset: 0x167D4, size: 0x8, addend: 0x0, symName: __Z7isasciii, symObjAddr: 0x30, symBinAddr: 0x100004004, symSize: 0x20 }
...
